target datalayout = "e-m:e-p270:32:32-p271:32:32-p272:64:64-i64:64-i128:128-f80:128-n8:16:32:64-S128"
target triple = "x86_64-pc-linux-gnu"

%"class.absl::lts_20240116::log_internal::Voidify" = type { i8 }
%"class.absl::lts_20240116::log_internal::LogMessageFatal" = type { %"class.absl::lts_20240116::log_internal::LogMessage" }
%"class.absl::lts_20240116::log_internal::LogMessage" = type { %"class.absl::lts_20240116::base_internal::ErrnoSaver", %"class.std::unique_ptr" }
%"class.absl::lts_20240116::base_internal::ErrnoSaver" = type { i32 }
%"class.std::unique_ptr" = type { %"struct.std::__uniq_ptr_data" }
%"struct.std::__uniq_ptr_data" = type { %"class.std::__uniq_ptr_impl" }
%"class.std::__uniq_ptr_impl" = type { %"class.std::tuple" }
%"class.std::tuple" = type { %"struct.std::_Tuple_impl" }
%"struct.std::_Tuple_impl" = type { %"struct.std::_Head_base.32" }
%"struct.std::_Head_base.32" = type { ptr }
%"class.std::basic_string_view" = type { i64, ptr }
%"class.ceres::internal::DoglegStrategy" = type { %"class.ceres::internal::TrustRegionStrategy", ptr, double, double, double, double, double, double, double, double, double, double, %"class.Eigen::Matrix", %"class.Eigen::Matrix", %"class.Eigen::Matrix", %"class.Eigen::Matrix", double, double, i8, i32, i8, %"class.Eigen::Matrix.3", %"class.Eigen::Matrix.12", %"class.Eigen::Matrix.21" }
%"class.ceres::internal::TrustRegionStrategy" = type { ptr }
%"class.Eigen::Matrix" = type { %"class.Eigen::PlainObjectBase" }
%"class.Eigen::PlainObjectBase" = type { %"class.Eigen::DenseStorage" }
%"class.Eigen::DenseStorage" = type { ptr, i64 }
%"class.Eigen::Matrix.3" = type { %"class.Eigen::PlainObjectBase.4" }
%"class.Eigen::PlainObjectBase.4" = type { %"class.Eigen::DenseStorage.11" }
%"class.Eigen::DenseStorage.11" = type { ptr, i64, i64 }
%"class.Eigen::Matrix.12" = type { %"class.Eigen::PlainObjectBase.13" }
%"class.Eigen::PlainObjectBase.13" = type { %"class.Eigen::DenseStorage.20" }
%"class.Eigen::DenseStorage.20" = type { %"struct.Eigen::internal::plain_array" }
%"struct.Eigen::internal::plain_array" = type { [2 x double] }
%"class.Eigen::Matrix.21" = type { %"class.Eigen::PlainObjectBase.22" }
%"class.Eigen::PlainObjectBase.22" = type { %"class.Eigen::DenseStorage.29" }
%"class.Eigen::DenseStorage.29" = type { %"struct.Eigen::internal::plain_array.30" }
%"struct.Eigen::internal::plain_array.30" = type { [4 x double] }
%"class.std::__cxx11::basic_string" = type { %"struct.std::__cxx11::basic_string<char>::_Alloc_hider", i64, %union.anon }
%"struct.std::__cxx11::basic_string<char>::_Alloc_hider" = type { ptr }
%union.anon = type { i64, [8 x i8] }

@.str = private unnamed_addr constant [130 x i8] c"generated/home/dtcxzyw/WorkSpace/Projects/compilers/llvm-opt-benchmark/bench/ceres/ceres-solver/internal/ceres/dogleg_strategy.cc\00", align 1
@.str.29 = private unnamed_addr constant [19 x i8] c"step_quality > 0.0\00", align 1

; Function Attrs: mustprogress nounwind uwtable
define available_externally noundef ptr @_ZNKSt7__cxx1112basic_stringIcSt11char_traitsIcESaIcEE7_M_dataEv(ptr noundef nonnull align 8 dereferenceable(32) %0) #1 align 2 {
  %2 = alloca ptr, align 8
  store ptr %0, ptr %2, align 8, !tbaa !67
  %3 = load ptr, ptr %2, align 8
  %4 = getelementptr inbounds nuw %"class.std::__cxx11::basic_string", ptr %3, i32 0, i32 0
  %5 = getelementptr inbounds nuw %"struct.std::__cxx11::basic_string<char>::_Alloc_hider", ptr %4, i32 0, i32 0
  %6 = load ptr, ptr %5, align 8, !tbaa !302
  ret ptr %6
}

; Function Attrs: mustprogress nounwind uwtable
define linkonce_odr hidden void @_ZNSt17basic_string_viewIcSt11char_traitsIcEEC2EPKcm(ptr noundef nonnull align 8 dereferenceable(16) %0, ptr noundef %1, i64 noundef %2) unnamed_addr #1 comdat align 2 {
  %4 = alloca ptr, align 8
  %5 = alloca ptr, align 8
  %6 = alloca i64, align 8
  store ptr %0, ptr %4, align 8, !tbaa !83
  store ptr %1, ptr %5, align 8, !tbaa !85
  store i64 %2, ptr %6, align 8, !tbaa !119
  %7 = load ptr, ptr %4, align 8
  %8 = getelementptr inbounds nuw %"class.std::basic_string_view", ptr %7, i32 0, i32 0
  %9 = load i64, ptr %6, align 8, !tbaa !119
  store i64 %9, ptr %8, align 8, !tbaa !87
  %10 = getelementptr inbounds nuw %"class.std::basic_string_view", ptr %7, i32 0, i32 1
  %11 = load ptr, ptr %5, align 8, !tbaa !85
  store ptr %11, ptr %10, align 8, !tbaa !89
  ret void
}

; Function Attrs: mustprogress nounwind uwtable
define available_externally noundef i64 @_ZNKSt7__cxx1112basic_stringIcSt11char_traitsIcESaIcEE4sizeEv(ptr noundef nonnull align 8 dereferenceable(32) %0) #1 align 2 {
  %2 = alloca ptr, align 8
  store ptr %0, ptr %2, align 8, !tbaa !67
  %3 = load ptr, ptr %2, align 8
  %4 = getelementptr inbounds nuw %"class.std::__cxx11::basic_string", ptr %3, i32 0, i32 1
  %5 = load i64, ptr %4, align 8, !tbaa !301
  ret i64 %5
}

; Function Attrs: mustprogress nounwind uwtable
define available_externally noundef ptr @_ZNKSt7__cxx1112basic_stringIcSt11char_traitsIcESaIcEE4dataEv(ptr noundef nonnull align 8 dereferenceable(32) %0) #1 align 2 {
  %2 = alloca ptr, align 8
  store ptr %0, ptr %2, align 8, !tbaa !67
  %3 = load ptr, ptr %2, align 8
  %4 = call noundef ptr @_ZNKSt7__cxx1112basic_stringIcSt11char_traitsIcESaIcEE7_M_dataEv(ptr noundef nonnull align 8 dereferenceable(32) %3)
  ret ptr %4
}

; Function Attrs: inlinehint mustprogress nounwind uwtable
define linkonce_odr noundef nonnull align 8 dereferenceable(8) ptr @_ZSt3maxIdERKT_S2_S2_(ptr noundef nonnull align 8 dereferenceable(8) %0, ptr noundef nonnull align 8 dereferenceable(8) %1) #4 comdat {
  %3 = alloca ptr, align 8
  %4 = alloca ptr, align 8
  %5 = alloca ptr, align 8
  store ptr %0, ptr %4, align 8, !tbaa !90
  store ptr %1, ptr %5, align 8, !tbaa !90
  %6 = load ptr, ptr %4, align 8, !tbaa !90
  %7 = load double, ptr %6, align 8, !tbaa !66
  %8 = load ptr, ptr %5, align 8, !tbaa !90
  %9 = load double, ptr %8, align 8, !tbaa !66
  %10 = fcmp olt double %7, %9
  br i1 %10, label %11, label %13

11:                                               ; preds = %2
  %12 = load ptr, ptr %5, align 8, !tbaa !90
  store ptr %12, ptr %3, align 8
  br label %15

13:                                               ; preds = %2
  %14 = load ptr, ptr %4, align 8, !tbaa !90
  store ptr %14, ptr %3, align 8
  br label %15

15:                                               ; preds = %13, %11
  %16 = load ptr, ptr %3, align 8
  ret ptr %16
}

; Function Attrs: mustprogress nounwind uwtable
define linkonce_odr hidden void @_ZNKO4absl12lts_2024011612log_internal7VoidifyaaINS1_10LogMessageEEEvRKT_(ptr noundef nonnull align 1 dereferenceable(1) %0, ptr noundef nonnull align 8 dereferenceable(16) %1) #1 comdat align 2 {
  %3 = alloca ptr, align 8
  %4 = alloca ptr, align 8
  store ptr %0, ptr %3, align 8, !tbaa !79
  store ptr %1, ptr %4, align 8, !tbaa !81
  ret void
}

; Function Attrs: mustprogress nounwind uwtable
define linkonce_odr hidden noundef nonnull align 8 dereferenceable(16) ptr @_ZN4absl12lts_2024011612log_internal10LogMessage14InternalStreamEv(ptr noundef nonnull align 8 dereferenceable(16) %0) #1 comdat align 2 {
  %2 = alloca ptr, align 8
  store ptr %0, ptr %2, align 8, !tbaa !81
  %3 = load ptr, ptr %2, align 8
  ret ptr %3
}

; Function Attrs: mustprogress nounwind uwtable
define available_externally { i64, ptr } @_ZNKSt7__cxx1112basic_stringIcSt11char_traitsIcESaIcEEcvSt17basic_string_viewIcS2_EEv(ptr noundef nonnull align 8 dereferenceable(32) %0) #1 align 2 {
  %2 = alloca %"class.std::basic_string_view", align 8
  %3 = alloca ptr, align 8
  store ptr %0, ptr %3, align 8, !tbaa !67
  %4 = load ptr, ptr %3, align 8
  %5 = call noundef ptr @_ZNKSt7__cxx1112basic_stringIcSt11char_traitsIcESaIcEE4dataEv(ptr noundef nonnull align 8 dereferenceable(32) %4) #27
  %6 = call noundef i64 @_ZNKSt7__cxx1112basic_stringIcSt11char_traitsIcESaIcEE4sizeEv(ptr noundef nonnull align 8 dereferenceable(32) %4) #27
  call void @_ZNSt17basic_string_viewIcSt11char_traitsIcEEC2EPKcm(ptr noundef nonnull align 8 dereferenceable(16) %2, ptr noundef %5, i64 noundef %6) #27
  %7 = load { i64, ptr }, ptr %2, align 8
  ret { i64, ptr } %7
}

; Function Attrs: inlinehint mustprogress uwtable
define linkonce_odr hidden noundef ptr @_ZN4absl12lts_2024011612log_internal12Check_GTImplIddEEPNSt7__cxx1112basic_stringIcSt11char_traitsIcESaIcEEERKT_RKT0_PKc(ptr noundef nonnull align 8 dereferenceable(8) %0, ptr noundef nonnull align 8 dereferenceable(8) %1, ptr noundef %2) #5 comdat {
  %4 = alloca ptr, align 8
  %5 = alloca ptr, align 8
  %6 = alloca ptr, align 8
  store ptr %0, ptr %4, align 8, !tbaa !90
  store ptr %1, ptr %5, align 8, !tbaa !90
  store ptr %2, ptr %6, align 8, !tbaa !85
  %7 = load ptr, ptr %4, align 8, !tbaa !90
  %8 = load double, ptr %7, align 8, !tbaa !66
  %9 = load ptr, ptr %5, align 8, !tbaa !90
  %10 = load double, ptr %9, align 8, !tbaa !66
  %11 = fcmp ogt double %8, %10
  %12 = zext i1 %11 to i64
  %13 = call i64 @llvm.expect.i64(i64 %12, i64 1)
  %14 = icmp ne i64 %13, 0
  br i1 %14, label %15, label %16

15:                                               ; preds = %3
  br label %23

16:                                               ; preds = %3
  %17 = load ptr, ptr %4, align 8, !tbaa !90
  %18 = load double, ptr %17, align 8, !tbaa !66
  %19 = load ptr, ptr %5, align 8, !tbaa !90
  %20 = load double, ptr %19, align 8, !tbaa !66
  %21 = load ptr, ptr %6, align 8, !tbaa !85
  %22 = call noundef nonnull ptr @_ZN4absl12lts_2024011612log_internal17MakeCheckOpStringIddEEPNSt7__cxx1112basic_stringIcSt11char_traitsIcESaIcEEET_T0_PKc(double noundef %18, double noundef %20, ptr noundef %21)
  br label %23

23:                                               ; preds = %16, %15
  %24 = phi ptr [ null, %15 ], [ %22, %16 ]
  ret ptr %24
}

; Function Attrs: inlinehint mustprogress nounwind uwtable
define linkonce_odr hidden noundef nonnull align 8 dereferenceable(8) ptr @_ZN4absl12lts_2024011612log_internal21GetReferenceableValueIdEERKT_S5_(ptr noundef nonnull align 8 dereferenceable(8) %0) #4 comdat {
  %2 = alloca ptr, align 8
  store ptr %0, ptr %2, align 8, !tbaa !90
  %3 = load ptr, ptr %2, align 8, !tbaa !90
  ret ptr %3
}

; Function Attrs: mustprogress uwtable
define hidden void @_ZN5ceres8internal14DoglegStrategy12StepAcceptedEd(ptr noundef nonnull align 8 dereferenceable(264) %0, double noundef %1) unnamed_addr #3 align 2 personality ptr @__gxx_personality_v0 {
  %3 = alloca ptr, align 8
  %4 = alloca double, align 8
  %5 = alloca ptr, align 8
  %6 = alloca double, align 8
  %7 = alloca %"class.absl::lts_20240116::log_internal::Voidify", align 1
  %8 = alloca %"class.absl::lts_20240116::log_internal::LogMessageFatal", align 8
  %9 = alloca %"class.std::basic_string_view", align 8
  %10 = alloca ptr, align 8
  %11 = alloca i32, align 4
  %12 = alloca double, align 8
  %13 = alloca double, align 8
  store ptr %0, ptr %3, align 8, !tbaa !14
  store double %1, ptr %4, align 8, !tbaa !66
  %14 = load ptr, ptr %3, align 8
  br label %15

15:                                               ; preds = %2
  call void @llvm.lifetime.start.p0(i64 8, ptr %5) #27
  %16 = call noundef nonnull align 8 dereferenceable(8) ptr @_ZN4absl12lts_2024011612log_internal21GetReferenceableValueIdEERKT_S5_(ptr noundef nonnull align 8 dereferenceable(8) %4)
  call void @llvm.lifetime.start.p0(i64 8, ptr %6) #27
  store double 0.000000e+00, ptr %6, align 8, !tbaa !66
  %17 = call noundef nonnull align 8 dereferenceable(8) ptr @_ZN4absl12lts_2024011612log_internal21GetReferenceableValueIdEERKT_S5_(ptr noundef nonnull align 8 dereferenceable(8) %6)
  %18 = call noundef ptr @_ZN4absl12lts_2024011612log_internal12Check_GTImplIddEEPNSt7__cxx1112basic_stringIcSt11char_traitsIcESaIcEEERKT_RKT0_PKc(ptr noundef nonnull align 8 dereferenceable(8) %16, ptr noundef nonnull align 8 dereferenceable(8) %17, ptr noundef @.str.29)
  call void @llvm.lifetime.end.p0(i64 8, ptr %6) #27
  store ptr %18, ptr %5, align 8, !tbaa !67
  %19 = load ptr, ptr %5, align 8, !tbaa !67
  %20 = icmp ne ptr %19, null
  br i1 %20, label %22, label %21

21:                                               ; preds = %15
  call void @llvm.lifetime.end.p0(i64 8, ptr %5) #27
  br label %41

22:                                               ; preds = %15
  call void @llvm.lifetime.start.p0(i64 1, ptr %7) #27
  call void @llvm.lifetime.start.p0(i64 16, ptr %8) #27
  %23 = load ptr, ptr %5, align 8, !tbaa !67
  %24 = call { i64, ptr } @_ZNKSt7__cxx1112basic_stringIcSt11char_traitsIcESaIcEEcvSt17basic_string_viewIcS2_EEv(ptr noundef nonnull align 8 dereferenceable(32) %23) #27
  %25 = getelementptr inbounds nuw { i64, ptr }, ptr %9, i32 0, i32 0
  %26 = extractvalue { i64, ptr } %24, 0
  store i64 %26, ptr %25, align 8
  %27 = getelementptr inbounds nuw { i64, ptr }, ptr %9, i32 0, i32 1
  %28 = extractvalue { i64, ptr } %24, 1
  store ptr %28, ptr %27, align 8
  %29 = getelementptr inbounds nuw { i64, ptr }, ptr %9, i32 0, i32 0
  %30 = load i64, ptr %29, align 8
  %31 = getelementptr inbounds nuw { i64, ptr }, ptr %9, i32 0, i32 1
  %32 = load ptr, ptr %31, align 8
  call void @_ZN4absl12lts_2024011612log_internal15LogMessageFatalC1EPKciSt17basic_string_viewIcSt11char_traitsIcEE(ptr noundef nonnull align 8 dereferenceable(16) %8, ptr noundef @.str, i32 noundef 619, i64 %30, ptr %32) #29
  %33 = invoke noundef nonnull align 8 dereferenceable(16) ptr @_ZN4absl12lts_2024011612log_internal10LogMessage14InternalStreamEv(ptr noundef nonnull align 8 dereferenceable(16) %8)
          to label %34 unwind label %36

34:                                               ; preds = %22
  invoke void @_ZNKO4absl12lts_2024011612log_internal7VoidifyaaINS1_10LogMessageEEEvRKT_(ptr noundef nonnull align 1 dereferenceable(1) %7, ptr noundef nonnull align 8 dereferenceable(16) %33)
          to label %35 unwind label %36

35:                                               ; preds = %34
  call void @_ZN4absl12lts_2024011612log_internal15LogMessageFatalD1Ev(ptr noundef nonnull align 8 dereferenceable(16) %8) #30
  unreachable

36:                                               ; preds = %34, %22
  %37 = landingpad { ptr, i32 }
          cleanup
  %38 = extractvalue { ptr, i32 } %37, 0
  store ptr %38, ptr %10, align 8
  %39 = extractvalue { ptr, i32 } %37, 1
  store i32 %39, ptr %11, align 4
  call void @_ZN4absl12lts_2024011612log_internal15LogMessageFatalD1Ev(ptr noundef nonnull align 8 dereferenceable(16) %8) #30
  unreachable

40:                                               ; No predecessors!
  call void @llvm.lifetime.end.p0(i64 16, ptr %8) #27
  call void @llvm.lifetime.end.p0(i64 1, ptr %7) #27
  call void @llvm.lifetime.end.p0(i64 8, ptr %5) #27
  br label %75

41:                                               ; preds = %21
  %42 = load double, ptr %4, align 8, !tbaa !66
  %43 = getelementptr inbounds nuw %"class.ceres::internal::DoglegStrategy", ptr %14, i32 0, i32 11
  %44 = load double, ptr %43, align 8, !tbaa !61
  %45 = fcmp olt double %42, %44
  br i1 %45, label %46, label %50

46:                                               ; preds = %41
  %47 = getelementptr inbounds nuw %"class.ceres::internal::DoglegStrategy", ptr %14, i32 0, i32 2
  %48 = load double, ptr %47, align 8, !tbaa !49
  %49 = fmul double %48, 5.000000e-01
  store double %49, ptr %47, align 8, !tbaa !49
  br label %50

50:                                               ; preds = %46, %41
  %51 = load double, ptr %4, align 8, !tbaa !66
  %52 = getelementptr inbounds nuw %"class.ceres::internal::DoglegStrategy", ptr %14, i32 0, i32 10
  %53 = load double, ptr %52, align 8, !tbaa !60
  %54 = fcmp ogt double %51, %53
  br i1 %54, label %55, label %63

55:                                               ; preds = %50
  %56 = getelementptr inbounds nuw %"class.ceres::internal::DoglegStrategy", ptr %14, i32 0, i32 2
  call void @llvm.lifetime.start.p0(i64 8, ptr %12) #27
  %57 = getelementptr inbounds nuw %"class.ceres::internal::DoglegStrategy", ptr %14, i32 0, i32 17
  %58 = load double, ptr %57, align 8, !tbaa !62
  %59 = fmul double 3.000000e+00, %58
  store double %59, ptr %12, align 8, !tbaa !66
  %60 = call noundef nonnull align 8 dereferenceable(8) ptr @_ZSt3maxIdERKT_S2_S2_(ptr noundef nonnull align 8 dereferenceable(8) %56, ptr noundef nonnull align 8 dereferenceable(8) %12)
  %61 = load double, ptr %60, align 8, !tbaa !66
  %62 = getelementptr inbounds nuw %"class.ceres::internal::DoglegStrategy", ptr %14, i32 0, i32 2
  store double %61, ptr %62, align 8, !tbaa !49
  call void @llvm.lifetime.end.p0(i64 8, ptr %12) #27
  br label %63

63:                                               ; preds = %55, %50
  %64 = getelementptr inbounds nuw %"class.ceres::internal::DoglegStrategy", ptr %14, i32 0, i32 7
  call void @llvm.lifetime.start.p0(i64 8, ptr %13) #27
  %65 = getelementptr inbounds nuw %"class.ceres::internal::DoglegStrategy", ptr %14, i32 0, i32 6
  %66 = load double, ptr %65, align 8, !tbaa !56
  %67 = fmul double 2.000000e+00, %66
  %68 = getelementptr inbounds nuw %"class.ceres::internal::DoglegStrategy", ptr %14, i32 0, i32 9
  %69 = load double, ptr %68, align 8, !tbaa !59
  %70 = fdiv double %67, %69
  store double %70, ptr %13, align 8, !tbaa !66
  %71 = call noundef nonnull align 8 dereferenceable(8) ptr @_ZSt3maxIdERKT_S2_S2_(ptr noundef nonnull align 8 dereferenceable(8) %64, ptr noundef nonnull align 8 dereferenceable(8) %13)
  %72 = load double, ptr %71, align 8, !tbaa !66
  %73 = getelementptr inbounds nuw %"class.ceres::internal::DoglegStrategy", ptr %14, i32 0, i32 6
  store double %72, ptr %73, align 8, !tbaa !56
  call void @llvm.lifetime.end.p0(i64 8, ptr %13) #27
  %74 = getelementptr inbounds nuw %"class.ceres::internal::DoglegStrategy", ptr %14, i32 0, i32 18
  store i8 0, ptr %74, align 8, !tbaa !63
  ret void

75:                                               ; preds = %40
  %76 = load ptr, ptr %10, align 8
  %77 = load i32, ptr %11, align 4
  %78 = insertvalue { ptr, i32 } poison, ptr %76, 0
  %79 = insertvalue { ptr, i32 } %78, i32 %77, 1
  resume { ptr, i32 } %79
}