; Function Attrs: mustprogress uwtable
define hidden void @_ZN5ceres8internal14DoglegStrategy12StepAcceptedEd(ptr noundef nonnull align 8 captures(none) dereferenceable(264) %0, double noundef %1) unnamed_addr #0 align 2 personality ptr @__gxx_personality_v0 {
  %3 = alloca %"class.absl::lts_20240116::log_internal::LogMessageFatal", align 8
  %4 = fcmp ogt double %1, 0.000000e+00
  br i1 %4, label %5, label %9, !prof !55

5:                                                ; preds = %2
  %6 = getelementptr inbounds nuw i8, ptr %0, i64 88
  %7 = load double, ptr %6, align 8, !tbaa !49
  %8 = fcmp olt double %1, %7
  br i1 %8, label %14, label %18

9:                                                ; preds = %2
  %10 = tail call noundef nonnull ptr @_ZN4absl12lts_2024011612log_internal17MakeCheckOpStringIddEEPNSt7__cxx1112basic_stringIcSt11char_traitsIcESaIcEEET_T0_PKc(double noundef %1, double noundef 0.000000e+00, ptr noundef nonnull @.str.29)
  call void @llvm.lifetime.start.p0(i64 16, ptr nonnull %3) #30
  %11 = load ptr, ptr %10, align 8, !tbaa !56
  %12 = getelementptr inbounds nuw i8, ptr %10, i64 8
  %13 = load i64, ptr %12, align 8, !tbaa !60
  call void @_ZN4absl12lts_2024011612log_internal15LogMessageFatalC1EPKciSt17basic_string_viewIcSt11char_traitsIcEE(ptr noundef nonnull align 8 dereferenceable(16) %3, ptr noundef nonnull @.str, i32 noundef 619, i64 %13, ptr %11) #31
  call void @_ZN4absl12lts_2024011612log_internal15LogMessageFatalD1Ev(ptr noundef nonnull align 8 dereferenceable(16) %3) #32
  unreachable

14:                                               ; preds = %5
  %15 = getelementptr inbounds nuw i8, ptr %0, i64 16
  %16 = load double, ptr %15, align 8, !tbaa !37
  %17 = fmul double %16, 5.000000e-01
  store double %17, ptr %15, align 8, !tbaa !37
  br label %18

18:                                               ; preds = %14, %5
  %19 = getelementptr inbounds nuw i8, ptr %0, i64 80
  %20 = load double, ptr %19, align 8, !tbaa !48
  %21 = fcmp ogt double %1, %20
  br i1 %21, label %22, label %29

22:                                               ; preds = %18
  %23 = getelementptr inbounds nuw i8, ptr %0, i64 16
  %24 = getelementptr inbounds nuw i8, ptr %0, i64 168
  %25 = load double, ptr %24, align 8, !tbaa !50
  %26 = fmul double %25, 3.000000e+00
  %27 = load double, ptr %23, align 8, !tbaa !66
  %28 = fcmp olt double %27, %26
  %.sroa.speculated5 = select i1 %28, double %26, double %27
  store double %.sroa.speculated5, ptr %23, align 8, !tbaa !37
  br label %29

29:                                               ; preds = %22, %18
  %30 = getelementptr inbounds nuw i8, ptr %0, i64 56
  %31 = getelementptr inbounds nuw i8, ptr %0, i64 48
  %32 = load double, ptr %31, align 8, !tbaa !44
  %33 = fmul double %32, 2.000000e+00
  %34 = getelementptr inbounds nuw i8, ptr %0, i64 72
  %35 = load double, ptr %34, align 8, !tbaa !47
  %36 = fdiv double %33, %35
  %37 = load double, ptr %30, align 8, !tbaa !66
  %38 = fcmp olt double %37, %36
  %.sroa.speculated = select i1 %38, double %36, double %37
  store double %.sroa.speculated, ptr %31, align 8, !tbaa !44
  %39 = getelementptr inbounds nuw i8, ptr %0, i64 176
  store i8 0, ptr %39, align 8, !tbaa !51
  ret void
}